target datalayout = "e-m:e-p270:32:32-p271:32:32-p272:64:64-i64:64-i128:128-f80:128-n8:16:32:64-S128"
target triple = "x86_64-pc-linux-gnu"

; Function Attrs: nounwind uwtable
define void @sfdp_cleanup(ptr noundef %0) #0 {
  %2 = alloca ptr, align 8
  %3 = alloca ptr, align 8
  %4 = alloca ptr, align 8
  store ptr %0, ptr %2, align 8, !tbaa !3
  call void @llvm.lifetime.start.p0(i64 8, ptr %3) #11
  call void @llvm.lifetime.start.p0(i64 8, ptr %4) #11
  %5 = load ptr, ptr %2, align 8, !tbaa !3
  %6 = call ptr @agfstnode(ptr noundef %5)
  store ptr %6, ptr %3, align 8, !tbaa !81
  br label %7

7:                                                ; preds = %25, %1
  %8 = load ptr, ptr %3, align 8, !tbaa !81
  %9 = icmp ne ptr %8, null
  br i1 %9, label %10, label %29

10:                                               ; preds = %7
  %11 = load ptr, ptr %2, align 8, !tbaa !3
  %12 = load ptr, ptr %3, align 8, !tbaa !81
  %13 = call ptr @agfstout(ptr noundef %11, ptr noundef %12)
  store ptr %13, ptr %4, align 8, !tbaa !91
  br label %14

14:                                               ; preds = %19, %10
  %15 = load ptr, ptr %4, align 8, !tbaa !91
  %16 = icmp ne ptr %15, null
  br i1 %16, label %17, label %23

17:                                               ; preds = %14
  %18 = load ptr, ptr %4, align 8, !tbaa !91
  call void @gv_cleanup_edge(ptr noundef %18)
  br label %19

19:                                               ; preds = %17
  %20 = load ptr, ptr %2, align 8, !tbaa !3
  %21 = load ptr, ptr %4, align 8, !tbaa !91
  %22 = call ptr @agnxtout(ptr noundef %20, ptr noundef %21)
  store ptr %22, ptr %4, align 8, !tbaa !91
  br label %14, !llvm.loop !92

23:                                               ; preds = %14
  %24 = load ptr, ptr %3, align 8, !tbaa !81
  call void @gv_cleanup_node(ptr noundef %24)
  br label %25

25:                                               ; preds = %23
  %26 = load ptr, ptr %2, align 8, !tbaa !3
  %27 = load ptr, ptr %3, align 8, !tbaa !81
  %28 = call ptr @agnxtnode(ptr noundef %26, ptr noundef %27)
  store ptr %28, ptr %3, align 8, !tbaa !81
  br label %7, !llvm.loop !93

29:                                               ; preds = %7
  call void @llvm.lifetime.end.p0(i64 8, ptr %4) #11
  call void @llvm.lifetime.end.p0(i64 8, ptr %3) #11
  ret void
}