; Function Attrs: nounwind uwtable
define void @sfdp_cleanup(ptr noundef %0) local_unnamed_addr #0 {
  %2 = tail call ptr @agfstnode(ptr noundef %0) #12
  %.not15 = icmp eq ptr %2, null
  br i1 %.not15, label %._crit_edge19, label %.lr.ph18

.lr.ph18:                                         ; preds = %1, %._crit_edge
  %.01116 = phi ptr [ %5, %._crit_edge ], [ %2, %1 ]
  %3 = tail call ptr @agfstout(ptr noundef %0, ptr noundef nonnull %.01116) #12
  %.not1213 = icmp eq ptr %3, null
  br i1 %.not1213, label %._crit_edge, label %.lr.ph

.lr.ph:                                           ; preds = %.lr.ph18, %.lr.ph
  %.014 = phi ptr [ %4, %.lr.ph ], [ %3, %.lr.ph18 ]
  tail call void @gv_cleanup_edge(ptr noundef nonnull %.014) #12
  %4 = tail call ptr @agnxtout(ptr noundef %0, ptr noundef nonnull %.014) #12
  %.not12 = icmp eq ptr %4, null
  br i1 %.not12, label %._crit_edge, label %.lr.ph, !llvm.loop !82

._crit_edge:                                      ; preds = %.lr.ph, %.lr.ph18
  tail call void @gv_cleanup_node(ptr noundef nonnull %.01116) #12
  %5 = tail call ptr @agnxtnode(ptr noundef %0, ptr noundef nonnull %.01116) #12
  %.not = icmp eq ptr %5, null
  br i1 %.not, label %._crit_edge19, label %.lr.ph18, !llvm.loop !83

._crit_edge19:                                    ; preds = %._crit_edge, %1
  ret void
}